target datalayout = "e-m:e-p270:32:32-p271:32:32-p272:64:64-i64:64-i128:128-f80:128-n8:16:32:64-S128"
target triple = "x86_64-pc-linux-gnu"

%struct.strbuf = type { i64, i64, ptr }
%struct.todo_list = type { %struct.strbuf, ptr, i32, i32, i32, i32, i32 }

@__const.todo_list_check_against_backup.backup = private unnamed_addr constant { %struct.strbuf, ptr, i32, i32, i32, i32, i32, [4 x i8] } { %struct.strbuf { i64 0, i64 0, ptr @strbuf_slopbuf }, ptr null, i32 0, i32 0, i32 0, i32 0, i32 0, [4 x i8] zeroinitializer }, align 8

; Function Attrs: nounwind uwtable
define dso_local i32 @todo_list_check_against_backup(ptr noundef %0, ptr noundef %1, ptr noundef %2) #0 {
  %4 = alloca ptr, align 8
  %5 = alloca ptr, align 8
  %6 = alloca ptr, align 8
  %7 = alloca %struct.todo_list, align 8
  %8 = alloca i32, align 4
  store ptr %0, ptr %4, align 8, !tbaa !19
  store ptr %1, ptr %5, align 8, !tbaa !21
  store ptr %2, ptr %6, align 8, !tbaa !23
  call void @llvm.lifetime.start.p0(i64 56, ptr %7) #8
  call void @llvm.memcpy.p0.p0.i64(ptr align 8 %7, ptr align 8 @__const.todo_list_check_against_backup.backup, i64 56, i1 false)
  call void @llvm.lifetime.start.p0(i64 4, ptr %8) #8
  store i32 0, ptr %8, align 4, !tbaa !4
  %9 = getelementptr inbounds nuw %struct.todo_list, ptr %7, i32 0, i32 0
  %10 = call ptr @rebase_path_todo_backup()
  %11 = call i64 @strbuf_read_file(ptr noundef %9, ptr noundef %10, i64 noundef 0)
  %12 = icmp sgt i64 %11, 0
  br i1 %12, label %13, label %22

13:                                               ; preds = %3
  %14 = load ptr, ptr %4, align 8, !tbaa !19
  %15 = load ptr, ptr %5, align 8, !tbaa !21
  %16 = getelementptr inbounds nuw %struct.todo_list, ptr %7, i32 0, i32 0
  %17 = getelementptr inbounds nuw %struct.strbuf, ptr %16, i32 0, i32 2
  %18 = load ptr, ptr %17, align 8, !tbaa !25
  %19 = call i32 @todo_list_parse_insn_buffer(ptr noundef %14, ptr noundef %15, ptr noundef %18, ptr noundef %7)
  %20 = load ptr, ptr %6, align 8, !tbaa !23
  %21 = call i32 @todo_list_check(ptr noundef %7, ptr noundef %20)
  store i32 %21, ptr %8, align 4, !tbaa !4
  br label %22

22:                                               ; preds = %13, %3
  call void @todo_list_release(ptr noundef %7)
  %23 = load i32, ptr %8, align 4, !tbaa !4
  call void @llvm.lifetime.end.p0(i64 4, ptr %8) #8
  call void @llvm.lifetime.end.p0(i64 56, ptr %7) #8
  ret i32 %23
}