; Function Attrs: nounwind uwtable
define dso_local range(i32 0, 2) i32 @todo_list_check_against_backup(ptr noundef %0, ptr noundef %1, ptr noundef readonly captures(none) %2) local_unnamed_addr #0 {
  %4 = alloca %struct.todo_list, align 8
  call void @llvm.lifetime.start.p0(i64 56, ptr nonnull %4) #10
  call void @llvm.memcpy.p0.p0.i64(ptr noundef nonnull align 8 dereferenceable(56) %4, ptr noundef nonnull align 8 dereferenceable(56) @__const.todo_list_check_against_backup.backup, i64 56, i1 false)
  %5 = tail call ptr @rebase_path_todo_backup() #10
  %6 = call i64 @strbuf_read_file(ptr noundef nonnull %4, ptr noundef %5, i64 noundef 0) #10
  %7 = icmp sgt i64 %6, 0
  br i1 %7, label %8, label %13

8:                                                ; preds = %3
  %9 = getelementptr inbounds nuw i8, ptr %4, i64 16
  %10 = load ptr, ptr %9, align 8, !tbaa !19
  %11 = call i32 @todo_list_parse_insn_buffer(ptr noundef %0, ptr noundef %1, ptr noundef %10, ptr noundef nonnull %4) #10
  %12 = call i32 @todo_list_check(ptr noundef nonnull %4, ptr noundef %2)
  br label %13

13:                                               ; preds = %8, %3
  %.0 = phi i32 [ %12, %8 ], [ 0, %3 ]
  call void @todo_list_release(ptr noundef nonnull %4) #10
  call void @llvm.lifetime.end.p0(i64 56, ptr nonnull %4) #10
  ret i32 %.0
}